; Function Attrs: nounwind uwtable
define hidden noundef i32 @zm_deactivate_spl(i32 %0, i32 %1) #0 {
  %3 = load ptr, ptr @spl_autoload_extensions, align 8, !tbaa !54
  %.not = icmp eq ptr %3, null
  br i1 %.not, label %14, label %4

4:                                                ; preds = %2
  %5 = getelementptr inbounds nuw i8, ptr %3, i64 4
  %6 = load i32, ptr %5, align 4, !tbaa !8
  %7 = and i32 %6, 64
  %.not.i = icmp eq i32 %7, 0
  br i1 %.not.i, label %8, label %zend_string_release_ex.exit

8:                                                ; preds = %4
  %9 = load i32, ptr %3, align 4, !tbaa !51
  %10 = icmp ne i32 %9, 0
  tail call void @llvm.assume(i1 %10)
  %11 = add i32 %9, -1
  store i32 %11, ptr %3, align 4, !tbaa !51
  %12 = icmp eq i32 %11, 0
  br i1 %12, label %13, label %zend_string_release_ex.exit

13:                                               ; preds = %8
  tail call void @_efree(ptr noundef nonnull %3) #10
  br label %zend_string_release_ex.exit

zend_string_release_ex.exit:                      ; preds = %4, %8, %13
  store ptr null, ptr @spl_autoload_extensions, align 8, !tbaa !54
  br label %14

14:                                               ; preds = %zend_string_release_ex.exit, %2
  %15 = load ptr, ptr @spl_autoload_functions, align 8, !tbaa !62
  %.not2 = icmp eq ptr %15, null
  br i1 %.not2, label %18, label %16

16:                                               ; preds = %14
  tail call void @zend_hash_destroy(ptr noundef nonnull %15) #10
  %17 = load ptr, ptr @spl_autoload_functions, align 8, !tbaa !62
  tail call void @_efree_56(ptr noundef %17) #10
  store ptr null, ptr @spl_autoload_functions, align 8, !tbaa !62
  br label %18

18:                                               ; preds = %16, %14
  ret i32 0
}